target datalayout = "e-m:e-p270:32:32-p271:32:32-p272:64:64-i64:64-i128:128-f80:128-n8:16:32:64-S128"
target triple = "x86_64-unknown-linux-gnu"

; Function Attrs: mustprogress uwtable
define noundef double @_ZNK8QuantLib22EndEulerDiscretization9diffusionERKNS_19StochasticProcess1DEddd(ptr noundef nonnull align 8 dereferenceable(16) %this, ptr noundef nonnull align 8 dereferenceable(144) %process, double noundef %t0, double noundef %x0, double noundef %dt) unnamed_addr #2 align 2 {
entry:
  %this.addr = alloca ptr, align 8
  %process.addr = alloca ptr, align 8
  %t0.addr = alloca double, align 8
  %x0.addr = alloca double, align 8
  %dt.addr = alloca double, align 8
  store ptr %this, ptr %this.addr, align 8, !tbaa !3
  store ptr %process, ptr %process.addr, align 8, !tbaa !3
  store double %t0, ptr %t0.addr, align 8, !tbaa !7
  store double %x0, ptr %x0.addr, align 8, !tbaa !7
  store double %dt, ptr %dt.addr, align 8, !tbaa !7
  %0 = load ptr, ptr %process.addr, align 8, !tbaa !3
  %1 = load double, ptr %t0.addr, align 8, !tbaa !7
  %2 = load double, ptr %dt.addr, align 8, !tbaa !7
  %add = fadd double %1, %2
  %3 = load double, ptr %x0.addr, align 8, !tbaa !7
  %vtable = load ptr, ptr %0, align 8, !tbaa !9
  %vfn = getelementptr inbounds ptr, ptr %vtable, i64 17
  %4 = load ptr, ptr %vfn, align 8
  %call = call noundef double %4(ptr noundef nonnull align 8 dereferenceable(144) %0, double noundef %add, double noundef %3)
  %5 = load double, ptr %dt.addr, align 8, !tbaa !7
  %call2 = call double @sqrt(double noundef %5) #16, !tbaa !13
  %mul = fmul double %call, %call2
  ret double %mul
}